target datalayout = "e-m:e-p270:32:32-p271:32:32-p272:64:64-i64:64-i128:128-f80:128-n8:16:32:64-S128"
target triple = "x86_64-pc-linux-gnu"

%"class.llvm::LoopSafetyInfo" = type { ptr, %"class.llvm::DenseMap" }
%"class.llvm::DenseMap" = type <{ ptr, i32, i32, i32, [4 x i8] }>
%"class.llvm::iterator_range" = type { ptr, ptr }
%"class.llvm::ICFLoopSafetyInfo" = type { %"class.llvm::LoopSafetyInfo", i8, %"class.llvm::ImplicitControlFlowTracking", %"class.llvm::MemoryWriteTracking" }
%"class.llvm::ImplicitControlFlowTracking" = type { %"class.llvm::InstructionPrecedenceTracking" }
%"class.llvm::InstructionPrecedenceTracking" = type { ptr, %"class.llvm::DenseMap.7" }
%"class.llvm::DenseMap.7" = type <{ ptr, i32, i32, i32, [4 x i8] }>
%"class.llvm::MemoryWriteTracking" = type { %"class.llvm::InstructionPrecedenceTracking" }

; Function Attrs: mustprogress nounwind uwtable
define linkonce_odr hidden noundef zeroext i1 @_ZN4llvm27ImplicitControlFlowTracking6hasICFEPKNS_10BasicBlockE(ptr noundef nonnull align 8 dereferenceable(32) %0, ptr noundef %1) #0 comdat align 2 {
  %3 = alloca ptr, align 8
  %4 = alloca ptr, align 8
  store ptr %0, ptr %3, align 8
  store ptr %1, ptr %4, align 8
  %5 = load ptr, ptr %3, align 8
  %6 = load ptr, ptr %4, align 8
  %7 = call noundef zeroext i1 @_ZN4llvm29InstructionPrecedenceTracking22hasSpecialInstructionsEPKNS_10BasicBlockE(ptr noundef nonnull align 8 dereferenceable(32) %5, ptr noundef %6)
  ret i1 %7
}

; Function Attrs: mustprogress nounwind uwtable
define linkonce_odr hidden noundef ptr @_ZNK4llvm14iterator_rangeIPKPNS_10BasicBlockEE3endEv(ptr noundef nonnull align 8 dereferenceable(16) %0) #0 comdat align 2 {
  %2 = alloca ptr, align 8
  store ptr %0, ptr %2, align 8
  %3 = load ptr, ptr %2, align 8
  %4 = getelementptr inbounds nuw %"class.llvm::iterator_range", ptr %3, i32 0, i32 1
  %5 = load ptr, ptr %4, align 8
  ret ptr %5
}

; Function Attrs: mustprogress nounwind uwtable
define linkonce_odr hidden noundef ptr @_ZNK4llvm14iterator_rangeIPKPNS_10BasicBlockEE5beginEv(ptr noundef nonnull align 8 dereferenceable(16) %0) #0 comdat align 2 {
  %2 = alloca ptr, align 8
  store ptr %0, ptr %2, align 8
  %3 = load ptr, ptr %2, align 8
  %4 = getelementptr inbounds nuw %"class.llvm::iterator_range", ptr %3, i32 0, i32 0
  %5 = load ptr, ptr %4, align 8
  ret ptr %5
}

; Function Attrs: mustprogress nounwind uwtable
define dso_local void @_ZN4llvm17ICFLoopSafetyInfo21computeLoopSafetyInfoEPKNS_4LoopE(ptr noundef nonnull align 8 dereferenceable(104) %0, ptr noundef %1) unnamed_addr #0 align 2 {
  %3 = alloca ptr, align 8
  %4 = alloca ptr, align 8
  %5 = alloca ptr, align 8
  %6 = alloca %"class.llvm::iterator_range", align 8
  %7 = alloca ptr, align 8
  %8 = alloca ptr, align 8
  %9 = alloca ptr, align 8
  store ptr %0, ptr %3, align 8
  store ptr %1, ptr %4, align 8
  %10 = load ptr, ptr %3, align 8
  %11 = getelementptr inbounds nuw %"class.llvm::ICFLoopSafetyInfo", ptr %10, i32 0, i32 2
  call void @_ZN4llvm29InstructionPrecedenceTracking5clearEv(ptr noundef nonnull align 8 dereferenceable(32) %11)
  %12 = getelementptr inbounds nuw %"class.llvm::ICFLoopSafetyInfo", ptr %10, i32 0, i32 3
  call void @_ZN4llvm29InstructionPrecedenceTracking5clearEv(ptr noundef nonnull align 8 dereferenceable(32) %12)
  %13 = getelementptr inbounds nuw %"class.llvm::ICFLoopSafetyInfo", ptr %10, i32 0, i32 1
  store i8 0, ptr %13, align 8
  %14 = load ptr, ptr %4, align 8
  %15 = call { ptr, ptr } @_ZNK4llvm8LoopBaseINS_10BasicBlockENS_4LoopEE6blocksEv(ptr noundef nonnull align 8 dereferenceable(152) %14)
  %16 = getelementptr inbounds nuw { ptr, ptr }, ptr %6, i32 0, i32 0
  %17 = extractvalue { ptr, ptr } %15, 0
  store ptr %17, ptr %16, align 8
  %18 = getelementptr inbounds nuw { ptr, ptr }, ptr %6, i32 0, i32 1
  %19 = extractvalue { ptr, ptr } %15, 1
  store ptr %19, ptr %18, align 8
  store ptr %6, ptr %5, align 8
  %20 = load ptr, ptr %5, align 8
  %21 = call noundef ptr @_ZNK4llvm14iterator_rangeIPKPNS_10BasicBlockEE5beginEv(ptr noundef nonnull align 8 dereferenceable(16) %20)
  store ptr %21, ptr %7, align 8
  %22 = load ptr, ptr %5, align 8
  %23 = call noundef ptr @_ZNK4llvm14iterator_rangeIPKPNS_10BasicBlockEE3endEv(ptr noundef nonnull align 8 dereferenceable(16) %22)
  store ptr %23, ptr %8, align 8
  br label %24

24:                                               ; preds = %37, %2
  %25 = load ptr, ptr %7, align 8
  %26 = load ptr, ptr %8, align 8
  %27 = icmp ne ptr %25, %26
  br i1 %27, label %28, label %40

28:                                               ; preds = %24
  %29 = load ptr, ptr %7, align 8
  store ptr %29, ptr %9, align 8
  %30 = getelementptr inbounds nuw %"class.llvm::ICFLoopSafetyInfo", ptr %10, i32 0, i32 2
  %31 = load ptr, ptr %9, align 8
  %32 = load ptr, ptr %31, align 8
  %33 = call noundef zeroext i1 @_ZN4llvm27ImplicitControlFlowTracking6hasICFEPKNS_10BasicBlockE(ptr noundef nonnull align 8 dereferenceable(32) %30, ptr noundef %32)
  br i1 %33, label %34, label %36

34:                                               ; preds = %28
  %35 = getelementptr inbounds nuw %"class.llvm::ICFLoopSafetyInfo", ptr %10, i32 0, i32 1
  store i8 1, ptr %35, align 8
  br label %40

36:                                               ; preds = %28
  br label %37

37:                                               ; preds = %36
  %38 = load ptr, ptr %7, align 8
  %39 = getelementptr inbounds ptr, ptr %38, i32 1
  store ptr %39, ptr %7, align 8
  br label %24

40:                                               ; preds = %34, %24
  %41 = load ptr, ptr %4, align 8
  call void @_ZN4llvm14LoopSafetyInfo18computeBlockColorsEPKNS_4LoopE(ptr noundef nonnull align 8 dereferenceable(32) %10, ptr noundef %41)
  ret void
}