; Function Attrs: mustprogress nounwind uwtable
define dso_local void @_ZN4llvm17ICFLoopSafetyInfo21computeLoopSafetyInfoEPKNS_4LoopE(ptr noundef nonnull align 8 dereferenceable(104) %0, ptr noundef %1) unnamed_addr #1 align 2 {
  %3 = getelementptr inbounds nuw i8, ptr %0, i64 40
  tail call void @_ZN4llvm29InstructionPrecedenceTracking5clearEv(ptr noundef nonnull align 8 dereferenceable(32) %3) #19
  %4 = getelementptr inbounds nuw i8, ptr %0, i64 72
  tail call void @_ZN4llvm29InstructionPrecedenceTracking5clearEv(ptr noundef nonnull align 8 dereferenceable(32) %4) #19
  %5 = getelementptr inbounds nuw i8, ptr %0, i64 32
  store i8 0, ptr %5, align 8
  %6 = tail call { ptr, ptr } @_ZNK4llvm8LoopBaseINS_10BasicBlockENS_4LoopEE6blocksEv(ptr noundef nonnull align 8 dereferenceable(152) %1) #19
  %7 = extractvalue { ptr, ptr } %6, 0
  %8 = extractvalue { ptr, ptr } %6, 1
  %.not10 = icmp eq ptr %7, %8
  br i1 %.not10, label %.loopexit, label %.lr.ph

9:                                                ; preds = %.lr.ph
  %10 = getelementptr inbounds i8, ptr %.011, i64 8
  %.not = icmp eq ptr %10, %8
  br i1 %.not, label %.loopexit, label %.lr.ph

.lr.ph:                                           ; preds = %2, %9
  %.011 = phi ptr [ %10, %9 ], [ %7, %2 ]
  %11 = load ptr, ptr %.011, align 8
  %12 = tail call noundef zeroext i1 @_ZN4llvm29InstructionPrecedenceTracking22hasSpecialInstructionsEPKNS_10BasicBlockE(ptr noundef nonnull align 8 dereferenceable(32) %3, ptr noundef %11) #19
  br i1 %12, label %13, label %9

13:                                               ; preds = %.lr.ph
  store i8 1, ptr %5, align 8
  br label %.loopexit

.loopexit:                                        ; preds = %9, %2, %13
  tail call void @_ZN4llvm14LoopSafetyInfo18computeBlockColorsEPKNS_4LoopE(ptr noundef nonnull align 8 dereferenceable(32) %0, ptr noundef nonnull %1)
  ret void
}